target datalayout = "e-m:e-p270:32:32-p271:32:32-p272:64:64-i64:64-i128:128-f80:128-n8:16:32:64-S128"
target triple = "x86_64-unknown-linux-gnu"

%struct.UDataMemory = type { ptr, ptr, ptr, i8, ptr, ptr, i32 }
%struct.DataHeader = type { %struct.MappedData, %struct.UDataInfo }
%struct.MappedData = type { i16, i8, i8 }
%struct.UDataInfo = type { i16, i16, i8, i8, i8, i8, [4 x i8], [4 x i8], [4 x i8] }

@.str = private unnamed_addr constant [4 x i8] c"icu\00", align 1
@.str.1 = private unnamed_addr constant [8 x i8] c"ucadata\00", align 1

; Function Attrs: mustprogress nounwind uwtable
define internal noundef signext i8 @_ZL9U_FAILURE10UErrorCode(i32 noundef %code) #1 {
entry:
  %code.addr = alloca i32, align 4
  store i32 %code, ptr %code.addr, align 4
  %0 = load i32, ptr %code.addr, align 4
  %cmp = icmp sgt i32 %0, 0
  %conv = zext i1 %cmp to i8
  ret i8 %conv
}

; Function Attrs: mustprogress uwtable
define noundef ptr @_ZN6icu_7513CollationRoot12loadFromFileEPKcR10UErrorCode(ptr noundef %ucadataPath, ptr noundef nonnull align 4 dereferenceable(4) %errorCode) #0 align 2 {
entry:
  %retval = alloca ptr, align 8
  %ucadataPath.addr = alloca ptr, align 8
  %errorCode.addr = alloca ptr, align 8
  %dataMemory = alloca %struct.UDataMemory, align 8
  %rDataMem = alloca ptr, align 8
  store ptr %ucadataPath, ptr %ucadataPath.addr, align 8
  store ptr %errorCode, ptr %errorCode.addr, align 8
  store ptr null, ptr %rDataMem, align 8
  %0 = load ptr, ptr %errorCode.addr, align 8
  %1 = load i32, ptr %0, align 4
  %call = call noundef signext i8 @_ZL9U_FAILURE10UErrorCode(i32 noundef %1)
  %tobool = icmp ne i8 %call, 0
  br i1 %tobool, label %if.then, label %if.end

if.then:                                          ; preds = %entry
  store ptr null, ptr %retval, align 8
  br label %return

if.end:                                           ; preds = %entry
  %2 = load ptr, ptr %ucadataPath.addr, align 8
  %3 = load ptr, ptr %errorCode.addr, align 8
  %call1 = call signext i8 @uprv_mapFile_75(ptr noundef %dataMemory, ptr noundef %2, ptr noundef %3)
  %tobool2 = icmp ne i8 %call1, 0
  br i1 %tobool2, label %if.then3, label %if.end23

if.then3:                                         ; preds = %if.end
  %pHeader = getelementptr inbounds %struct.UDataMemory, ptr %dataMemory, i32 0, i32 1
  %4 = load ptr, ptr %pHeader, align 8
  %dataHeader = getelementptr inbounds %struct.DataHeader, ptr %4, i32 0, i32 0
  %magic1 = getelementptr inbounds %struct.MappedData, ptr %dataHeader, i32 0, i32 1
  %5 = load i8, ptr %magic1, align 2
  %conv = zext i8 %5 to i32
  %cmp = icmp eq i32 %conv, 218
  br i1 %cmp, label %land.lhs.true, label %if.end22

land.lhs.true:                                    ; preds = %if.then3
  %pHeader4 = getelementptr inbounds %struct.UDataMemory, ptr %dataMemory, i32 0, i32 1
  %6 = load ptr, ptr %pHeader4, align 8
  %dataHeader5 = getelementptr inbounds %struct.DataHeader, ptr %6, i32 0, i32 0
  %magic2 = getelementptr inbounds %struct.MappedData, ptr %dataHeader5, i32 0, i32 2
  %7 = load i8, ptr %magic2, align 1
  %conv6 = zext i8 %7 to i32
  %cmp7 = icmp eq i32 %conv6, 39
  br i1 %cmp7, label %land.lhs.true8, label %if.end22

land.lhs.true8:                                   ; preds = %land.lhs.true
  %pHeader9 = getelementptr inbounds %struct.UDataMemory, ptr %dataMemory, i32 0, i32 1
  %8 = load ptr, ptr %pHeader9, align 8
  %info = getelementptr inbounds %struct.DataHeader, ptr %8, i32 0, i32 1
  %call10 = call noundef signext i8 @_ZN6icu_7519CollationDataReader12isAcceptableEPvPKcS3_PK9UDataInfo(ptr noundef null, ptr noundef @.str, ptr noundef @.str.1, ptr noundef %info)
  %tobool11 = icmp ne i8 %call10, 0
  br i1 %tobool11, label %if.then12, label %if.end22

if.then12:                                        ; preds = %land.lhs.true8
  %9 = load ptr, ptr %errorCode.addr, align 8
  %call13 = call ptr @UDataMemory_createNewInstance_75(ptr noundef %9)
  store ptr %call13, ptr %rDataMem, align 8
  %10 = load ptr, ptr %errorCode.addr, align 8
  %11 = load i32, ptr %10, align 4
  %call14 = call noundef signext i8 @_ZL9U_FAILURE10UErrorCode(i32 noundef %11)
  %tobool15 = icmp ne i8 %call14, 0
  br i1 %tobool15, label %if.then16, label %if.end17

if.then16:                                        ; preds = %if.then12
  store ptr null, ptr %retval, align 8
  br label %return

if.end17:                                         ; preds = %if.then12
  %pHeader18 = getelementptr inbounds %struct.UDataMemory, ptr %dataMemory, i32 0, i32 1
  %12 = load ptr, ptr %pHeader18, align 8
  %13 = load ptr, ptr %rDataMem, align 8
  %pHeader19 = getelementptr inbounds %struct.UDataMemory, ptr %13, i32 0, i32 1
  store ptr %12, ptr %pHeader19, align 8
  %mapAddr = getelementptr inbounds %struct.UDataMemory, ptr %dataMemory, i32 0, i32 4
  %14 = load ptr, ptr %mapAddr, align 8
  %15 = load ptr, ptr %rDataMem, align 8
  %mapAddr20 = getelementptr inbounds %struct.UDataMemory, ptr %15, i32 0, i32 4
  store ptr %14, ptr %mapAddr20, align 8
  %map = getelementptr inbounds %struct.UDataMemory, ptr %dataMemory, i32 0, i32 5
  %16 = load ptr, ptr %map, align 8
  %17 = load ptr, ptr %rDataMem, align 8
  %map21 = getelementptr inbounds %struct.UDataMemory, ptr %17, i32 0, i32 5
  store ptr %16, ptr %map21, align 8
  %18 = load ptr, ptr %rDataMem, align 8
  store ptr %18, ptr %retval, align 8
  br label %return

if.end22:                                         ; preds = %land.lhs.true8, %land.lhs.true, %if.then3
  %19 = load ptr, ptr %errorCode.addr, align 8
  store i32 3, ptr %19, align 4
  store ptr null, ptr %retval, align 8
  br label %return

if.end23:                                         ; preds = %if.end
  %20 = load ptr, ptr %errorCode.addr, align 8
  store i32 2, ptr %20, align 4
  store ptr null, ptr %retval, align 8
  br label %return

return:                                           ; preds = %if.end23, %if.end22, %if.end17, %if.then16, %if.then
  %21 = load ptr, ptr %retval, align 8
  ret ptr %21
}