; Function Attrs: mustprogress uwtable
define noundef ptr @_ZN6icu_7513CollationRoot12loadFromFileEPKcR10UErrorCode(ptr noundef %ucadataPath, ptr noundef nonnull align 4 dereferenceable(4) %errorCode) local_unnamed_addr #0 align 2 {
entry:
  %dataMemory = alloca %struct.UDataMemory, align 8
  %0 = load i32, ptr %errorCode, align 4
  %cmp.i = icmp slt i32 %0, 1
  br i1 %cmp.i, label %if.end, label %return

if.end:                                           ; preds = %entry
  %call1 = call signext i8 @uprv_mapFile_75(ptr noundef nonnull %dataMemory, ptr noundef %ucadataPath, ptr noundef nonnull %errorCode)
  %tobool2.not = icmp eq i8 %call1, 0
  br i1 %tobool2.not, label %if.end23, label %if.then3

if.then3:                                         ; preds = %if.end
  %pHeader = getelementptr inbounds i8, ptr %dataMemory, i64 8
  %1 = load ptr, ptr %pHeader, align 8
  %magic1 = getelementptr inbounds i8, ptr %1, i64 2
  %2 = load i8, ptr %magic1, align 2
  %cmp = icmp eq i8 %2, -38
  br i1 %cmp, label %land.lhs.true, label %if.end22

land.lhs.true:                                    ; preds = %if.then3
  %magic2 = getelementptr inbounds i8, ptr %1, i64 3
  %3 = load i8, ptr %magic2, align 1
  %cmp7 = icmp eq i8 %3, 39
  br i1 %cmp7, label %land.lhs.true8, label %if.end22

land.lhs.true8:                                   ; preds = %land.lhs.true
  %info = getelementptr inbounds i8, ptr %1, i64 4
  %call10 = call noundef signext i8 @_ZN6icu_7519CollationDataReader12isAcceptableEPvPKcS3_PK9UDataInfo(ptr noundef null, ptr noundef nonnull @.str, ptr noundef nonnull @.str.1, ptr noundef nonnull %info)
  %tobool11.not = icmp eq i8 %call10, 0
  br i1 %tobool11.not, label %if.end22, label %if.then12

if.then12:                                        ; preds = %land.lhs.true8
  %call13 = call ptr @UDataMemory_createNewInstance_75(ptr noundef nonnull %errorCode)
  %4 = load i32, ptr %errorCode, align 4
  %cmp.i9 = icmp slt i32 %4, 1
  br i1 %cmp.i9, label %if.end17, label %return

if.end17:                                         ; preds = %if.then12
  %5 = load ptr, ptr %pHeader, align 8
  %pHeader19 = getelementptr inbounds i8, ptr %call13, i64 8
  store ptr %5, ptr %pHeader19, align 8
  %mapAddr = getelementptr inbounds i8, ptr %dataMemory, i64 32
  %6 = load ptr, ptr %mapAddr, align 8
  %mapAddr20 = getelementptr inbounds i8, ptr %call13, i64 32
  store ptr %6, ptr %mapAddr20, align 8
  %map = getelementptr inbounds i8, ptr %dataMemory, i64 40
  %7 = load ptr, ptr %map, align 8
  %map21 = getelementptr inbounds i8, ptr %call13, i64 40
  store ptr %7, ptr %map21, align 8
  br label %return

if.end22:                                         ; preds = %land.lhs.true8, %land.lhs.true, %if.then3
  store i32 3, ptr %errorCode, align 4
  br label %return

if.end23:                                         ; preds = %if.end
  store i32 2, ptr %errorCode, align 4
  br label %return

return:                                           ; preds = %if.then12, %entry, %if.end23, %if.end22, %if.end17
  %retval.0 = phi ptr [ %call13, %if.end17 ], [ null, %if.end22 ], [ null, %if.end23 ], [ null, %entry ], [ null, %if.then12 ]
  ret ptr %retval.0
}